target datalayout = "e-m:e-p270:32:32-p271:32:32-p272:64:64-i64:64-i128:128-f80:128-n8:16:32:64-S128"
target triple = "x86_64-pc-linux-gnu"

@.str.28 = private unnamed_addr constant [34 x i8] c"../openssl/test/evp_extra_test2.c\00", align 1
@.str.216 = private unnamed_addr constant [25 x i8] c"mdctx = EVP_MD_CTX_new()\00", align 1
@.str.217 = private unnamed_addr constant [32 x i8] c"copyctx = EVP_MD_CTX_dup(mdctx)\00", align 1

; Function Attrs: nounwind uwtable
define internal i32 @test_evp_md_ctx_dup() #0 {
  %1 = alloca ptr, align 8
  %2 = alloca ptr, align 8
  %3 = alloca i32, align 4
  call void @llvm.lifetime.start.p0(i64 8, ptr %1) #7
  call void @llvm.lifetime.start.p0(i64 8, ptr %2) #7
  store ptr null, ptr %2, align 8, !tbaa !46
  call void @llvm.lifetime.start.p0(i64 4, ptr %3) #7
  %4 = call ptr @EVP_MD_CTX_new()
  store ptr %4, ptr %1, align 8, !tbaa !46
  %5 = call i32 @test_ptr(ptr noundef @.str.28, i32 noundef 1331, ptr noundef @.str.216, ptr noundef %4)
  %6 = icmp ne i32 %5, 0
  br i1 %6, label %7, label %12

7:                                                ; preds = %0
  %8 = load ptr, ptr %1, align 8, !tbaa !46
  %9 = call ptr @EVP_MD_CTX_dup(ptr noundef %8)
  store ptr %9, ptr %2, align 8, !tbaa !46
  %10 = call i32 @test_ptr(ptr noundef @.str.28, i32 noundef 1332, ptr noundef @.str.217, ptr noundef %9)
  %11 = icmp ne i32 %10, 0
  br label %12

12:                                               ; preds = %7, %0
  %13 = phi i1 [ false, %0 ], [ %11, %7 ]
  %14 = zext i1 %13 to i32
  store i32 %14, ptr %3, align 4, !tbaa !11
  %15 = load ptr, ptr %1, align 8, !tbaa !46
  call void @EVP_MD_CTX_free(ptr noundef %15)
  %16 = load ptr, ptr %2, align 8, !tbaa !46
  call void @EVP_MD_CTX_free(ptr noundef %16)
  %17 = load i32, ptr %3, align 4, !tbaa !11
  call void @llvm.lifetime.end.p0(i64 4, ptr %3) #7
  call void @llvm.lifetime.end.p0(i64 8, ptr %2) #7
  call void @llvm.lifetime.end.p0(i64 8, ptr %1) #7
  ret i32 %17
}