; Function Attrs: nounwind uwtable
define internal range(i32 0, 2) i32 @test_evp_md_ctx_dup() #0 {
  %1 = tail call ptr @EVP_MD_CTX_new() #7
  %2 = tail call i32 @test_ptr(ptr noundef nonnull @.str.28, i32 noundef 1331, ptr noundef nonnull @.str.216, ptr noundef %1) #7
  %.not = icmp eq i32 %2, 0
  br i1 %.not, label %8, label %3

3:                                                ; preds = %0
  %4 = tail call ptr @EVP_MD_CTX_dup(ptr noundef %1) #7
  %5 = tail call i32 @test_ptr(ptr noundef nonnull @.str.28, i32 noundef 1332, ptr noundef nonnull @.str.217, ptr noundef %4) #7
  %6 = icmp ne i32 %5, 0
  %7 = zext i1 %6 to i32
  br label %8

8:                                                ; preds = %3, %0
  %.0 = phi ptr [ %4, %3 ], [ null, %0 ]
  %9 = phi i32 [ %7, %3 ], [ 0, %0 ]
  tail call void @EVP_MD_CTX_free(ptr noundef %1) #7
  tail call void @EVP_MD_CTX_free(ptr noundef %.0) #7
  ret i32 %9
}